; Function Attrs: mustprogress uwtable
define noundef float @_ZNK7Imf_3_218TiledRgbaInputFile16pixelAspectRatioEv(ptr nocapture noundef nonnull readonly align 8 dereferenceable(56) %this) local_unnamed_addr #3 align 2 {
entry:
  %_inputFile = getelementptr inbounds i8, ptr %this, i64 8
  %0 = load ptr, ptr %_inputFile, align 8
  %call = tail call noundef nonnull align 8 dereferenceable(49) ptr @_ZNK7Imf_3_214TiledInputFile6headerEv(ptr noundef nonnull align 8 dereferenceable(16) %0)
  %call2 = tail call noundef nonnull align 4 dereferenceable(4) ptr @_ZNK7Imf_3_26Header16pixelAspectRatioEv(ptr noundef nonnull align 8 dereferenceable(49) %call)
  %1 = load float, ptr %call2, align 4
  ret float %1
}